target datalayout = "e-m:e-p270:32:32-p271:32:32-p272:64:64-i64:64-i128:128-f80:128-n8:16:32:64-S128"
target triple = "x86_64-pc-linux-gnu"

%struct.dfvm_value_t = type { i32, %union.anon, i32 }
%union.anon = type { ptr }
%struct.epan_dfilter = type { ptr, i32, ptr, ptr, i32, ptr, ptr, ptr, ptr, ptr, ptr, ptr, ptr }
%struct._GPtrArray = type { ptr, i32 }
%struct.df_cell_t = type { ptr }
%struct._GSList = type { ptr, ptr }

; Function Attrs: nounwind uwtable
define internal zeroext i1 @test_in_internal(ptr noundef %0, ptr noundef %1) #0 {
  %3 = alloca i1, align 1
  %4 = alloca ptr, align 8
  %5 = alloca ptr, align 8
  %6 = alloca ptr, align 8
  %7 = alloca ptr, align 8
  %8 = alloca i8, align 1
  %9 = alloca i8, align 1
  %10 = alloca i32, align 4
  %11 = alloca i32, align 4
  %12 = alloca i32, align 4
  store ptr %0, ptr %4, align 8
  store ptr %1, ptr %5, align 8
  %13 = load ptr, ptr %5, align 8
  %14 = getelementptr ptr, ptr %13, i64 0
  %15 = load ptr, ptr %14, align 8
  store ptr %15, ptr %6, align 8
  %16 = load ptr, ptr %5, align 8
  %17 = getelementptr ptr, ptr %16, i64 1
  %18 = load ptr, ptr %17, align 8
  store ptr %18, ptr %7, align 8
  store i8 0, ptr %8, align 1
  store i8 0, ptr %9, align 1
  %19 = load ptr, ptr %7, align 8
  %20 = icmp ne ptr %19, null
  br i1 %20, label %21, label %76

21:                                               ; preds = %2
  store i32 0, ptr %10, align 4
  br label %22

22:                                               ; preds = %42, %21
  %23 = load i32, ptr %10, align 4
  %24 = load ptr, ptr %7, align 8
  %25 = getelementptr inbounds %struct._GPtrArray, ptr %24, i32 0, i32 1
  %26 = load i32, ptr %25, align 8
  %27 = icmp ult i32 %23, %26
  br i1 %27, label %28, label %45

28:                                               ; preds = %22
  %29 = load ptr, ptr %4, align 8
  %30 = load ptr, ptr %7, align 8
  %31 = getelementptr inbounds %struct._GPtrArray, ptr %30, i32 0, i32 0
  %32 = load ptr, ptr %31, align 8
  %33 = load i32, ptr %10, align 4
  %34 = zext i32 %33 to i64
  %35 = getelementptr ptr, ptr %32, i64 %34
  %36 = load ptr, ptr %35, align 8
  %37 = call zeroext i1 @fvalue_le(ptr noundef %29, ptr noundef %36)
  %38 = zext i1 %37 to i32
  %39 = icmp eq i32 %38, 1
  br i1 %39, label %40, label %41

40:                                               ; preds = %28
  store i8 1, ptr %9, align 1
  br label %45

41:                                               ; preds = %28
  br label %42

42:                                               ; preds = %41
  %43 = load i32, ptr %10, align 4
  %44 = add i32 %43, 1
  store i32 %44, ptr %10, align 4
  br label %22, !llvm.loop !33

45:                                               ; preds = %40, %22
  %46 = load i8, ptr %9, align 1
  %47 = trunc i8 %46 to i1
  br i1 %47, label %49, label %48

48:                                               ; preds = %45
  store i1 false, ptr %3, align 1
  br label %104

49:                                               ; preds = %45
  br label %50

50:                                               ; preds = %49
  br label %51

51:                                               ; preds = %50
  store i32 0, ptr %11, align 4
  br label %52

52:                                               ; preds = %72, %51
  %53 = load i32, ptr %11, align 4
  %54 = load ptr, ptr %6, align 8
  %55 = getelementptr inbounds %struct._GPtrArray, ptr %54, i32 0, i32 1
  %56 = load i32, ptr %55, align 8
  %57 = icmp ult i32 %53, %56
  br i1 %57, label %58, label %75

58:                                               ; preds = %52
  %59 = load ptr, ptr %4, align 8
  %60 = load ptr, ptr %6, align 8
  %61 = getelementptr inbounds %struct._GPtrArray, ptr %60, i32 0, i32 0
  %62 = load ptr, ptr %61, align 8
  %63 = load i32, ptr %11, align 4
  %64 = zext i32 %63 to i64
  %65 = getelementptr ptr, ptr %62, i64 %64
  %66 = load ptr, ptr %65, align 8
  %67 = call zeroext i1 @fvalue_ge(ptr noundef %59, ptr noundef %66)
  %68 = zext i1 %67 to i32
  %69 = icmp eq i32 %68, 1
  br i1 %69, label %70, label %71

70:                                               ; preds = %58
  store i8 1, ptr %8, align 1
  br label %75

71:                                               ; preds = %58
  br label %72

72:                                               ; preds = %71
  %73 = load i32, ptr %11, align 4
  %74 = add i32 %73, 1
  store i32 %74, ptr %11, align 4
  br label %52, !llvm.loop !34

75:                                               ; preds = %70, %52
  br label %101

76:                                               ; preds = %2
  store i32 0, ptr %12, align 4
  br label %77

77:                                               ; preds = %97, %76
  %78 = load i32, ptr %12, align 4
  %79 = load ptr, ptr %6, align 8
  %80 = getelementptr inbounds %struct._GPtrArray, ptr %79, i32 0, i32 1
  %81 = load i32, ptr %80, align 8
  %82 = icmp ult i32 %78, %81
  br i1 %82, label %83, label %100

83:                                               ; preds = %77
  %84 = load ptr, ptr %4, align 8
  %85 = load ptr, ptr %6, align 8
  %86 = getelementptr inbounds %struct._GPtrArray, ptr %85, i32 0, i32 0
  %87 = load ptr, ptr %86, align 8
  %88 = load i32, ptr %12, align 4
  %89 = zext i32 %88 to i64
  %90 = getelementptr ptr, ptr %87, i64 %89
  %91 = load ptr, ptr %90, align 8
  %92 = call zeroext i1 @fvalue_eq(ptr noundef %84, ptr noundef %91)
  %93 = zext i1 %92 to i32
  %94 = icmp eq i32 %93, 1
  br i1 %94, label %95, label %96

95:                                               ; preds = %83
  store i8 1, ptr %8, align 1
  br label %100

96:                                               ; preds = %83
  br label %97

97:                                               ; preds = %96
  %98 = load i32, ptr %12, align 4
  %99 = add i32 %98, 1
  store i32 %99, ptr %12, align 4
  br label %77, !llvm.loop !35

100:                                              ; preds = %95, %77
  br label %101

101:                                              ; preds = %100, %75
  %102 = load i8, ptr %8, align 1
  %103 = trunc i8 %102 to i1
  store i1 %103, ptr %3, align 1
  br label %104

104:                                              ; preds = %101, %48
  %105 = load i1, ptr %3, align 1
  ret i1 %105
}

; Function Attrs: nounwind uwtable
define internal zeroext i1 @any_in(ptr noundef %0, ptr noundef %1) #0 {
  %3 = alloca i1, align 1
  %4 = alloca ptr, align 8
  %5 = alloca ptr, align 8
  %6 = alloca ptr, align 8
  %7 = alloca ptr, align 8
  %8 = alloca ptr, align 8
  %9 = alloca i8, align 1
  %10 = alloca i64, align 8
  store ptr %0, ptr %4, align 8
  store ptr %1, ptr %5, align 8
  %11 = load ptr, ptr %4, align 8
  %12 = getelementptr inbounds %struct.epan_dfilter, ptr %11, i32 0, i32 2
  %13 = load ptr, ptr %12, align 8
  %14 = load ptr, ptr %5, align 8
  %15 = getelementptr inbounds %struct.dfvm_value_t, ptr %14, i32 0, i32 1
  %16 = load i32, ptr %15, align 8
  %17 = zext i32 %16 to i64
  %18 = getelementptr %struct.df_cell_t, ptr %13, i64 %17
  store ptr %18, ptr %6, align 8
  br label %19

19:                                               ; preds = %2
  br label %20

20:                                               ; preds = %19
  %21 = load ptr, ptr %6, align 8
  %22 = getelementptr inbounds %struct.df_cell_t, ptr %21, i32 0, i32 0
  %23 = load ptr, ptr %22, align 8
  store ptr %23, ptr %7, align 8
  store i64 0, ptr %10, align 8
  br label %24

24:                                               ; preds = %59, %20
  %25 = load i64, ptr %10, align 8
  %26 = load ptr, ptr %7, align 8
  %27 = getelementptr inbounds %struct._GPtrArray, ptr %26, i32 0, i32 1
  %28 = load i32, ptr %27, align 8
  %29 = zext i32 %28 to i64
  %30 = icmp ult i64 %25, %29
  br i1 %30, label %31, label %62

31:                                               ; preds = %24
  %32 = load ptr, ptr %4, align 8
  %33 = getelementptr inbounds %struct.epan_dfilter, ptr %32, i32 0, i32 12
  %34 = load ptr, ptr %33, align 8
  store ptr %34, ptr %8, align 8
  store i8 0, ptr %9, align 1
  br label %35

35:                                               ; preds = %50, %31
  %36 = load ptr, ptr %8, align 8
  %37 = icmp ne ptr %36, null
  br i1 %37, label %38, label %54

38:                                               ; preds = %35
  %39 = load ptr, ptr %7, align 8
  %40 = getelementptr inbounds %struct._GPtrArray, ptr %39, i32 0, i32 0
  %41 = load ptr, ptr %40, align 8
  %42 = load i64, ptr %10, align 8
  %43 = getelementptr ptr, ptr %41, i64 %42
  %44 = load ptr, ptr %43, align 8
  %45 = load ptr, ptr %8, align 8
  %46 = getelementptr inbounds %struct._GSList, ptr %45, i32 0, i32 0
  %47 = load ptr, ptr %46, align 8
  %48 = call zeroext i1 @test_in_internal(ptr noundef %44, ptr noundef %47)
  br i1 %48, label %49, label %50

49:                                               ; preds = %38
  store i8 1, ptr %9, align 1
  br label %54

50:                                               ; preds = %38
  %51 = load ptr, ptr %8, align 8
  %52 = getelementptr inbounds %struct._GSList, ptr %51, i32 0, i32 1
  %53 = load ptr, ptr %52, align 8
  store ptr %53, ptr %8, align 8
  br label %35, !llvm.loop !19

54:                                               ; preds = %49, %35
  %55 = load i8, ptr %9, align 1
  %56 = trunc i8 %55 to i1
  br i1 %56, label %57, label %58

57:                                               ; preds = %54
  store i1 true, ptr %3, align 1
  br label %63

58:                                               ; preds = %54
  br label %59

59:                                               ; preds = %58
  %60 = load i64, ptr %10, align 8
  %61 = add i64 %60, 1
  store i64 %61, ptr %10, align 8
  br label %24, !llvm.loop !20

62:                                               ; preds = %24
  store i1 false, ptr %3, align 1
  br label %63

63:                                               ; preds = %62, %57
  %64 = load i1, ptr %3, align 1
  ret i1 %64
}