; Function Attrs: nounwind uwtable
define internal fastcc noundef zeroext i1 @any_in(ptr noundef readonly captures(none) %0, i32 %.8.val) unnamed_addr #2 {
  %2 = getelementptr inbounds nuw i8, ptr %0, i64 16
  %3 = load ptr, ptr %2, align 8
  %4 = zext i32 %.8.val to i64
  %5 = getelementptr %struct.df_cell_t, ptr %3, i64 %4
  %6 = load ptr, ptr %5, align 8
  %7 = getelementptr inbounds nuw i8, ptr %6, i64 8
  %8 = load i32, ptr %7, align 8
  %.not = icmp eq i32 %8, 0
  br i1 %.not, label %test_in_internal.exit, label %.lr.ph12

.lr.ph12:                                         ; preds = %1
  %9 = getelementptr inbounds nuw i8, ptr %0, i64 96
  %10 = load ptr, ptr %9, align 8
  %11 = icmp eq ptr %10, null
  br i1 %11, label %test_in_internal.exit, label %.lr.ph12.split

.lr.ph12.splitthread-pre-split:                   ; preds = %.critedge
  %.0148.pr = load ptr, ptr %9, align 8
  br label %.lr.ph12.split

.lr.ph12.split:                                   ; preds = %.lr.ph12, %.lr.ph12.splitthread-pre-split
  %.0148 = phi ptr [ %.0148.pr, %.lr.ph12.splitthread-pre-split ], [ %10, %.lr.ph12 ]
  %12 = phi i32 [ %49, %.lr.ph12.splitthread-pre-split ], [ %8, %.lr.ph12 ]
  %.011 = phi i64 [ %50, %.lr.ph12.splitthread-pre-split ], [ 0, %.lr.ph12 ]
  %.not.not9 = icmp eq ptr %.0148, null
  br i1 %.not.not9, label %.critedge, label %.lr.ph

.lr.ph:                                           ; preds = %.lr.ph12.split, %.loopexit
  %.01410 = phi ptr [ %.014, %.loopexit ], [ %.0148, %.lr.ph12.split ]
  %13 = load ptr, ptr %6, align 8
  %14 = getelementptr ptr, ptr %13, i64 %.011
  %15 = load ptr, ptr %14, align 8
  %16 = load ptr, ptr %.01410, align 8
  %.val = load ptr, ptr %16, align 8
  %17 = getelementptr i8, ptr %16, i64 8
  %.val16 = load ptr, ptr %17, align 8
  %.not.i = icmp eq ptr %.val16, null
  br i1 %.not.i, label %.preheader.i, label %.preheader4.i

.preheader4.i:                                    ; preds = %.lr.ph
  %18 = getelementptr inbounds nuw i8, ptr %.val16, i64 8
  %19 = load i32, ptr %18, align 8
  %.not16.i = icmp eq i32 %19, 0
  br i1 %.not16.i, label %.loopexit, label %.lr.ph.i

.preheader.i:                                     ; preds = %.lr.ph
  %20 = getelementptr inbounds nuw i8, ptr %.val, i64 8
  %21 = load i32, ptr %20, align 8
  %.not18.i = icmp eq i32 %21, 0
  br i1 %.not18.i, label %.loopexit, label %.lr.ph12.i

22:                                               ; preds = %.lr.ph.i
  %indvars.iv.next.i = add nuw nsw i64 %indvars.iv.i, 1
  %23 = load i32, ptr %18, align 8
  %24 = zext i32 %23 to i64
  %25 = icmp samesign ult i64 %indvars.iv.next.i, %24
  br i1 %25, label %.lr.ph.i, label %.loopexit, !llvm.loop !29

.lr.ph.i:                                         ; preds = %.preheader4.i, %22
  %indvars.iv.i = phi i64 [ %indvars.iv.next.i, %22 ], [ 0, %.preheader4.i ]
  %26 = load ptr, ptr %.val16, align 8
  %27 = getelementptr ptr, ptr %26, i64 %indvars.iv.i
  %28 = load ptr, ptr %27, align 8
  %29 = tail call zeroext i1 @fvalue_le(ptr noundef %15, ptr noundef %28) #11
  br i1 %29, label %.preheader1.i, label %22

.preheader1.i:                                    ; preds = %.lr.ph.i
  %30 = getelementptr inbounds nuw i8, ptr %.val, i64 8
  %31 = load i32, ptr %30, align 8
  %.not17.i = icmp eq i32 %31, 0
  br i1 %.not17.i, label %.loopexit, label %.lr.ph8.i

32:                                               ; preds = %.lr.ph8.i
  %indvars.iv.next24.i = add nuw nsw i64 %indvars.iv23.i, 1
  %33 = load i32, ptr %30, align 8
  %34 = zext i32 %33 to i64
  %35 = icmp samesign ult i64 %indvars.iv.next24.i, %34
  br i1 %35, label %.lr.ph8.i, label %.loopexit, !llvm.loop !30

.lr.ph8.i:                                        ; preds = %.preheader1.i, %32
  %indvars.iv23.i = phi i64 [ %indvars.iv.next24.i, %32 ], [ 0, %.preheader1.i ]
  %36 = load ptr, ptr %.val, align 8
  %37 = getelementptr ptr, ptr %36, i64 %indvars.iv23.i
  %38 = load ptr, ptr %37, align 8
  %39 = tail call zeroext i1 @fvalue_ge(ptr noundef %15, ptr noundef %38) #11
  br i1 %39, label %test_in_internal.exit, label %32

40:                                               ; preds = %.lr.ph12.i
  %indvars.iv.next27.i = add nuw nsw i64 %indvars.iv26.i, 1
  %41 = load i32, ptr %20, align 8
  %42 = zext i32 %41 to i64
  %43 = icmp samesign ult i64 %indvars.iv.next27.i, %42
  br i1 %43, label %.lr.ph12.i, label %.loopexit, !llvm.loop !31

.lr.ph12.i:                                       ; preds = %.preheader.i, %40
  %indvars.iv26.i = phi i64 [ %indvars.iv.next27.i, %40 ], [ 0, %.preheader.i ]
  %44 = load ptr, ptr %.val, align 8
  %45 = getelementptr ptr, ptr %44, i64 %indvars.iv26.i
  %46 = load ptr, ptr %45, align 8
  %47 = tail call zeroext i1 @fvalue_eq(ptr noundef %15, ptr noundef %46) #11
  br i1 %47, label %test_in_internal.exit, label %40

.loopexit:                                        ; preds = %22, %32, %40, %.preheader.i, %.preheader1.i, %.preheader4.i
  %48 = getelementptr inbounds nuw i8, ptr %.01410, i64 8
  %.014 = load ptr, ptr %48, align 8
  %.not.not = icmp eq ptr %.014, null
  br i1 %.not.not, label %.critedge.loopexit, label %.lr.ph, !llvm.loop !34

.critedge.loopexit:                               ; preds = %.loopexit
  %.pre = load i32, ptr %7, align 8
  br label %.critedge

.critedge:                                        ; preds = %.critedge.loopexit, %.lr.ph12.split
  %49 = phi i32 [ %.pre, %.critedge.loopexit ], [ %12, %.lr.ph12.split ]
  %50 = add nuw nsw i64 %.011, 1
  %51 = zext i32 %49 to i64
  %52 = icmp samesign ult i64 %50, %51
  br i1 %52, label %.lr.ph12.splitthread-pre-split, label %test_in_internal.exit, !llvm.loop !35

test_in_internal.exit:                            ; preds = %.critedge, %.lr.ph8.i, %.lr.ph12.i, %.lr.ph12, %1
  %53 = phi i1 [ false, %1 ], [ false, %.lr.ph12 ], [ true, %.lr.ph12.i ], [ true, %.lr.ph8.i ], [ false, %.critedge ]
  ret i1 %53
}